; Function Attrs: mustprogress nounwind uwtable
define internal fastcc void @_ZN12_GLOBAL__N_110PythonUnitD2Ev(ptr noundef nonnull align 8 dereferenceable(72) %0) unnamed_addr #4 align 2 personality ptr @__gxx_personality_v0 {
  %2 = getelementptr inbounds i8, ptr %0, i64 48
  %3 = load ptr, ptr %2, align 8
  %.not.i.i.i = icmp eq ptr %3, null
  br i1 %.not.i.i.i, label %_ZNSt8functionIFN2cv4GArgERKSt6vectorINS0_4util7variantIJNS3_9monostateENS0_8GMatDescENS0_11GScalarDescENS0_10GArrayDescENS0_11GOpaqueDescENS0_10GFrameDescEEEESaISB_EERKS2_IS1_SaIS1_EEEED2Ev.exit.i, label %4

4:                                                ; preds = %1
  %5 = getelementptr inbounds i8, ptr %0, i64 32
  %6 = invoke noundef zeroext i1 %3(ptr noundef nonnull align 8 dereferenceable(16) %5, ptr noundef nonnull align 8 dereferenceable(16) %5, i32 noundef 3)
          to label %_ZNSt8functionIFN2cv4GArgERKSt6vectorINS0_4util7variantIJNS3_9monostateENS0_8GMatDescENS0_11GScalarDescENS0_10GArrayDescENS0_11GOpaqueDescENS0_10GFrameDescEEEESaISB_EERKS2_IS1_SaIS1_EEEED2Ev.exit.i unwind label %7

7:                                                ; preds = %4
  %8 = landingpad { ptr, i32 }
          catch ptr null
  %9 = extractvalue { ptr, i32 } %8, 0
  tail call void @__clang_call_terminate(ptr %9) #23
  unreachable

_ZNSt8functionIFN2cv4GArgERKSt6vectorINS0_4util7variantIJNS3_9monostateENS0_8GMatDescENS0_11GScalarDescENS0_10GArrayDescENS0_11GOpaqueDescENS0_10GFrameDescEEEESaISB_EERKS2_IS1_SaIS1_EEEED2Ev.exit.i: ; preds = %4, %1
  %10 = getelementptr inbounds i8, ptr %0, i64 16
  %11 = load ptr, ptr %10, align 8
  %.not.i.i1.i = icmp eq ptr %11, null
  br i1 %.not.i.i1.i, label %_ZN2cv4gapi6python13GPythonKernelD2Ev.exit, label %12

12:                                               ; preds = %_ZNSt8functionIFN2cv4GArgERKSt6vectorINS0_4util7variantIJNS3_9monostateENS0_8GMatDescENS0_11GScalarDescENS0_10GArrayDescENS0_11GOpaqueDescENS0_10GFrameDescEEEESaISB_EERKS2_IS1_SaIS1_EEEED2Ev.exit.i
  %13 = invoke noundef zeroext i1 %11(ptr noundef nonnull align 8 dereferenceable(16) %0, ptr noundef nonnull align 8 dereferenceable(16) %0, i32 noundef 3)
          to label %_ZN2cv4gapi6python13GPythonKernelD2Ev.exit unwind label %14

14:                                               ; preds = %12
  %15 = landingpad { ptr, i32 }
          catch ptr null
  %16 = extractvalue { ptr, i32 } %15, 0
  tail call void @__clang_call_terminate(ptr %16) #23
  unreachable

_ZN2cv4gapi6python13GPythonKernelD2Ev.exit:       ; preds = %_ZNSt8functionIFN2cv4GArgERKSt6vectorINS0_4util7variantIJNS3_9monostateENS0_8GMatDescENS0_11GScalarDescENS0_10GArrayDescENS0_11GOpaqueDescENS0_10GFrameDescEEEESaISB_EERKS2_IS1_SaIS1_EEEED2Ev.exit.i, %12
  ret void
}